target datalayout = "e-m:e-p270:32:32-p271:32:32-p272:64:64-i64:64-i128:128-f80:128-n8:16:32:64-S128"
target triple = "x86_64-pc-linux-gnu"

%union.pthread_mutex_t = type { %struct.__pthread_mutex_s }
%struct.__pthread_mutex_s = type { i32, i32, i32, i32, i32, i16, i16, %struct.__pthread_internal_list }
%struct.__pthread_internal_list = type { ptr, ptr }
%struct.slurm_conf_t = type { i64, ptr, i16, ptr, ptr, ptr, ptr, ptr, i16, ptr, ptr, ptr, ptr, ptr, ptr, ptr, i16, ptr, ptr, ptr, ptr, i16, ptr, ptr, ptr, i64, ptr, ptr, ptr, ptr, i16, ptr, ptr, i16, i32, ptr, i32, ptr, i32, i32, ptr, ptr, i64, i64, ptr, i16, i16, ptr, i32, i32, ptr, i32, ptr, i32, i16, i16, i16, ptr, i16, i16, ptr, ptr, i32, i16, i16, ptr, i32, i16, ptr, ptr, ptr, ptr, i16, ptr, ptr, ptr, ptr, i32, ptr, ptr, ptr, ptr, i16, i16, ptr, i32, i32, i32, i16, i16, ptr, ptr, i16, ptr, ptr, i32, i32, i32, i32, i32, i64, i32, i32, i16, ptr, ptr, i32, ptr, ptr, ptr, i16, i32, ptr, ptr, i16, ptr, ptr, i32, i16, ptr, ptr, ptr, ptr, i32, i32, i16, i16, i32, ptr, i16, ptr, i32, i32, i32, i32, i32, i32, ptr, i16, ptr, ptr, i32, i16, ptr, i32, i16, i16, ptr, ptr, ptr, i16, ptr, ptr, ptr, ptr, i16, i16, ptr, i16, ptr, i16, ptr, i16, ptr, i16, ptr, ptr, ptr, ptr, i16, ptr, ptr, ptr, i32, ptr, i32, ptr, ptr, i16, ptr, ptr, i32, i16, ptr, ptr, i16, i16, ptr, i16, ptr, ptr, ptr, i32, ptr, i16, i16, ptr, ptr, ptr, ptr, ptr, ptr, ptr, ptr, i16, i32, i16, ptr, ptr, ptr, ptr, i32, ptr, ptr, ptr, i16, ptr, ptr, ptr, i16, ptr, i16, ptr, i16, i16, ptr }
%struct.fed_job_info_t = type { i32, i32, i64, i64, [64 x i32], [64 x i64] }

@fed_job_list_mutex = internal global %union.pthread_mutex_t zeroinitializer, align 8
@.str.1 = private unnamed_addr constant [29 x i8] c"%s: pthread_mutex_lock(): %m\00", align 1
@fed_job_list = internal global ptr null, align 8
@.str.2 = private unnamed_addr constant [31 x i8] c"%s: pthread_mutex_unlock(): %m\00", align 1
@slurm_conf = external global %struct.slurm_conf_t, align 8
@.str.23 = private unnamed_addr constant [37 x i8] c"Didn't find JobId=%u in fed_job_list\00", align 1
@__func__.fed_mgr_job_lock_unset = private unnamed_addr constant [23 x i8] c"fed_mgr_job_lock_unset\00", align 1
@.str.39 = private unnamed_addr constant [58 x i8] c"FEDR: %s: attempting to unlock fed JobId=%u by cluster %u\00", align 1
@.str.40 = private unnamed_addr constant [73 x i8] c"attempt to unlock sib JobId=%u by cluster %d which doesn't have job lock\00", align 1
@.str.41 = private unnamed_addr constant [38 x i8] c"FEDR: %s: fed JobId=%u unlocked by %u\00", align 1

; Function Attrs: nounwind uwtable
define internal ptr @_find_fed_job_info(i32 noundef %0) #0 {
  %2 = alloca ptr, align 8
  %3 = alloca i32, align 4
  store i32 %0, ptr %3, align 4
  %4 = load ptr, ptr @fed_job_list, align 8
  %5 = icmp ne ptr %4, null
  br i1 %5, label %7, label %6

6:                                                ; preds = %1
  store ptr null, ptr %2, align 8
  br label %10

7:                                                ; preds = %1
  %8 = load ptr, ptr @fed_job_list, align 8
  %9 = call ptr @list_find_first(ptr noundef %8, ptr noundef @_list_find_fed_job_info_by_jobid, ptr noundef %3)
  store ptr %9, ptr %2, align 8
  br label %10

10:                                               ; preds = %7, %6
  %11 = load ptr, ptr %2, align 8
  ret ptr %11
}

; Function Attrs: nounwind uwtable
define dso_local i32 @fed_mgr_job_lock_unset(i32 noundef %0, i32 noundef %1) #0 {
  %3 = alloca i32, align 4
  %4 = alloca i32, align 4
  %5 = alloca i32, align 4
  %6 = alloca ptr, align 8
  %7 = alloca i32, align 4
  %8 = alloca i32, align 4
  store i32 %0, ptr %3, align 4
  store i32 %1, ptr %4, align 4
  call void @llvm.lifetime.start.p0(i64 4, ptr %5) #9
  store i32 0, ptr %5, align 4
  call void @llvm.lifetime.start.p0(i64 8, ptr %6) #9
  br label %9

9:                                                ; preds = %2
  call void @llvm.lifetime.start.p0(i64 4, ptr %7) #9
  %10 = call i32 @pthread_mutex_lock(ptr noundef @fed_job_list_mutex) #9
  store i32 %10, ptr %7, align 4
  %11 = load i32, ptr %7, align 4
  %12 = icmp ne i32 %11, 0
  br i1 %12, label %13, label %16

13:                                               ; preds = %9
  %14 = load i32, ptr %7, align 4
  %15 = call ptr @__errno_location() #10
  store i32 %14, ptr %15, align 4
  call void (ptr, ...) @fatal_abort(ptr noundef @.str.1, ptr noundef @__func__.fed_mgr_job_lock_unset) #11
  unreachable

16:                                               ; preds = %9
  call void @llvm.lifetime.end.p0(i64 4, ptr %7) #9
  br label %17

17:                                               ; preds = %16
  br label %18

18:                                               ; preds = %17
  br label %19

19:                                               ; preds = %18
  %20 = load i64, ptr getelementptr inbounds nuw (%struct.slurm_conf_t, ptr @slurm_conf, i32 0, i32 42), align 8
  %21 = and i64 %20, 281474976710656
  %22 = icmp ne i64 %21, 0
  br i1 %22, label %23, label %33

23:                                               ; preds = %19
  br label %24

24:                                               ; preds = %23
  %25 = call i32 @get_log_level()
  %26 = icmp sge i32 %25, 4
  br i1 %26, label %27, label %30

27:                                               ; preds = %24
  %28 = load i32, ptr %3, align 4
  %29 = load i32, ptr %4, align 4
  call void (i32, ptr, ...) @log_var(i32 noundef 4, ptr noundef @.str.39, ptr noundef @__func__.fed_mgr_job_lock_unset, i32 noundef %28, i32 noundef %29)
  br label %30

30:                                               ; preds = %27, %24
  br label %31

31:                                               ; preds = %30
  br label %32

32:                                               ; preds = %31
  br label %33

33:                                               ; preds = %32, %19
  br label %34

34:                                               ; preds = %33
  br label %35

35:                                               ; preds = %34
  %36 = load i32, ptr %3, align 4
  %37 = call ptr @_find_fed_job_info(i32 noundef %36)
  store ptr %37, ptr %6, align 8
  %38 = icmp ne ptr %37, null
  br i1 %38, label %42, label %39

39:                                               ; preds = %35
  %40 = load i32, ptr %3, align 4
  %41 = call i32 (ptr, ...) @error(ptr noundef @.str.23, i32 noundef %40)
  store i32 -1, ptr %5, align 4
  br label %78

42:                                               ; preds = %35
  %43 = load ptr, ptr %6, align 8
  %44 = getelementptr inbounds nuw %struct.fed_job_info_t, ptr %43, i32 0, i32 0
  %45 = load i32, ptr %44, align 8
  %46 = icmp ne i32 %45, 0
  br i1 %46, label %47, label %57

47:                                               ; preds = %42
  %48 = load ptr, ptr %6, align 8
  %49 = getelementptr inbounds nuw %struct.fed_job_info_t, ptr %48, i32 0, i32 0
  %50 = load i32, ptr %49, align 8
  %51 = load i32, ptr %4, align 4
  %52 = icmp ne i32 %50, %51
  br i1 %52, label %53, label %57

53:                                               ; preds = %47
  %54 = load i32, ptr %3, align 4
  %55 = load i32, ptr %4, align 4
  %56 = call i32 (ptr, ...) @error(ptr noundef @.str.40, i32 noundef %54, i32 noundef %55)
  store i32 -1, ptr %5, align 4
  br label %77

57:                                               ; preds = %47, %42
  br label %58

58:                                               ; preds = %57
  %59 = load i64, ptr getelementptr inbounds nuw (%struct.slurm_conf_t, ptr @slurm_conf, i32 0, i32 42), align 8
  %60 = and i64 %59, 281474976710656
  %61 = icmp ne i64 %60, 0
  br i1 %61, label %62, label %72

62:                                               ; preds = %58
  br label %63

63:                                               ; preds = %62
  %64 = call i32 @get_log_level()
  %65 = icmp sge i32 %64, 4
  br i1 %65, label %66, label %69

66:                                               ; preds = %63
  %67 = load i32, ptr %3, align 4
  %68 = load i32, ptr %4, align 4
  call void (i32, ptr, ...) @log_var(i32 noundef 4, ptr noundef @.str.41, ptr noundef @__func__.fed_mgr_job_lock_unset, i32 noundef %67, i32 noundef %68)
  br label %69

69:                                               ; preds = %66, %63
  br label %70

70:                                               ; preds = %69
  br label %71

71:                                               ; preds = %70
  br label %72

72:                                               ; preds = %71, %58
  br label %73

73:                                               ; preds = %72
  br label %74

74:                                               ; preds = %73
  %75 = load ptr, ptr %6, align 8
  %76 = getelementptr inbounds nuw %struct.fed_job_info_t, ptr %75, i32 0, i32 0
  store i32 0, ptr %76, align 8
  br label %77

77:                                               ; preds = %74, %53
  br label %78

78:                                               ; preds = %77, %39
  br label %79

79:                                               ; preds = %78
  call void @llvm.lifetime.start.p0(i64 4, ptr %8) #9
  %80 = call i32 @pthread_mutex_unlock(ptr noundef @fed_job_list_mutex) #9
  store i32 %80, ptr %8, align 4
  %81 = load i32, ptr %8, align 4
  %82 = icmp ne i32 %81, 0
  br i1 %82, label %83, label %86

83:                                               ; preds = %79
  %84 = load i32, ptr %8, align 4
  %85 = call ptr @__errno_location() #10
  store i32 %84, ptr %85, align 4
  call void (ptr, ...) @fatal_abort(ptr noundef @.str.2, ptr noundef @__func__.fed_mgr_job_lock_unset) #11
  unreachable

86:                                               ; preds = %79
  call void @llvm.lifetime.end.p0(i64 4, ptr %8) #9
  br label %87

87:                                               ; preds = %86
  br label %88

88:                                               ; preds = %87
  %89 = load i32, ptr %5, align 4
  call void @llvm.lifetime.end.p0(i64 8, ptr %6) #9
  call void @llvm.lifetime.end.p0(i64 4, ptr %5) #9
  ret i32 %89
}