; Function Attrs: nounwind uwtable
define dso_local range(i32 -1, 1) i32 @fed_mgr_job_lock_unset(i32 noundef %0, i32 noundef %1) local_unnamed_addr #0 {
  %3 = alloca i32, align 4
  %4 = tail call i32 @pthread_mutex_lock(ptr noundef nonnull @fed_job_list_mutex) #16
  %.not = icmp eq i32 %4, 0
  br i1 %.not, label %7, label %5

5:                                                ; preds = %2
  %6 = tail call ptr @__errno_location() #17
  store i32 %4, ptr %6, align 4
  tail call void (ptr, ...) @fatal_abort(ptr noundef nonnull @.str.1, ptr noundef nonnull @__func__.fed_mgr_job_lock_unset) #18
  unreachable

7:                                                ; preds = %2
  %8 = load i64, ptr getelementptr inbounds nuw (i8, ptr @slurm_conf, i64 320), align 8
  %9 = and i64 %8, 281474976710656
  %.not21 = icmp eq i64 %9, 0
  br i1 %.not21, label %14, label %10

10:                                               ; preds = %7
  %11 = tail call i32 @get_log_level() #16
  %12 = icmp sgt i32 %11, 3
  br i1 %12, label %13, label %14

13:                                               ; preds = %10
  tail call void (i32, ptr, ...) @log_var(i32 noundef 4, ptr noundef nonnull @.str.39, ptr noundef nonnull @__func__.fed_mgr_job_lock_unset, i32 noundef %0, i32 noundef %1) #16
  br label %14

14:                                               ; preds = %10, %13, %7
  call void @llvm.lifetime.start.p0(i64 4, ptr nonnull %3)
  store i32 %0, ptr %3, align 4
  %15 = load ptr, ptr @fed_job_list, align 8
  %.not.i = icmp eq ptr %15, null
  br i1 %.not.i, label %_find_fed_job_info.exit.thread, label %_find_fed_job_info.exit

_find_fed_job_info.exit.thread:                   ; preds = %14
  call void @llvm.lifetime.end.p0(i64 4, ptr nonnull %3)
  br label %17

_find_fed_job_info.exit:                          ; preds = %14
  %16 = call ptr @list_find_first(ptr noundef nonnull %15, ptr noundef nonnull @_list_find_fed_job_info_by_jobid, ptr noundef nonnull %3) #16
  call void @llvm.lifetime.end.p0(i64 4, ptr nonnull %3)
  %.not22 = icmp eq ptr %16, null
  br i1 %.not22, label %17, label %19

17:                                               ; preds = %_find_fed_job_info.exit.thread, %_find_fed_job_info.exit
  %18 = call i32 (ptr, ...) @error(ptr noundef nonnull @.str.23, i32 noundef %0) #16
  br label %31

19:                                               ; preds = %_find_fed_job_info.exit
  %20 = load i32, ptr %16, align 8
  %.not23 = icmp eq i32 %20, 0
  %.not24 = icmp eq i32 %20, %1
  %or.cond = or i1 %.not23, %.not24
  br i1 %or.cond, label %23, label %21

21:                                               ; preds = %19
  %22 = call i32 (ptr, ...) @error(ptr noundef nonnull @.str.40, i32 noundef %0, i32 noundef %1) #16
  br label %31

23:                                               ; preds = %19
  %24 = load i64, ptr getelementptr inbounds nuw (i8, ptr @slurm_conf, i64 320), align 8
  %25 = and i64 %24, 281474976710656
  %.not25 = icmp eq i64 %25, 0
  br i1 %.not25, label %30, label %26

26:                                               ; preds = %23
  %27 = call i32 @get_log_level() #16
  %28 = icmp sgt i32 %27, 3
  br i1 %28, label %29, label %30

29:                                               ; preds = %26
  call void (i32, ptr, ...) @log_var(i32 noundef 4, ptr noundef nonnull @.str.41, ptr noundef nonnull @__func__.fed_mgr_job_lock_unset, i32 noundef %0, i32 noundef %1) #16
  br label %30

30:                                               ; preds = %26, %29, %23
  store i32 0, ptr %16, align 8
  br label %31

31:                                               ; preds = %17, %30, %21
  %.0 = phi i32 [ -1, %21 ], [ 0, %30 ], [ -1, %17 ]
  %32 = call i32 @pthread_mutex_unlock(ptr noundef nonnull @fed_job_list_mutex) #16
  %.not26 = icmp eq i32 %32, 0
  br i1 %.not26, label %35, label %33

33:                                               ; preds = %31
  %34 = tail call ptr @__errno_location() #17
  store i32 %32, ptr %34, align 4
  call void (ptr, ...) @fatal_abort(ptr noundef nonnull @.str.2, ptr noundef nonnull @__func__.fed_mgr_job_lock_unset) #18
  unreachable

35:                                               ; preds = %31
  ret i32 %.0
}